target datalayout = "e-m:e-p270:32:32-p271:32:32-p272:64:64-i64:64-i128:128-f80:128-n8:16:32:64-S128"
target triple = "x86_64-pc-linux-gnu"

%struct.pxr_nc_1_0_ColorSpace = type { %struct.pxr_nc_1_0_ColorSpaceDescriptor, float, float, %struct.pxr_nc_1_0_M33f }
%struct.pxr_nc_1_0_ColorSpaceDescriptor = type { ptr, %struct.pxr_nc_1_0_Chromaticity, %struct.pxr_nc_1_0_Chromaticity, %struct.pxr_nc_1_0_Chromaticity, %struct.pxr_nc_1_0_Chromaticity, float, float }
%struct.pxr_nc_1_0_Chromaticity = type { float, float }
%struct.pxr_nc_1_0_M33f = type { [9 x float] }
%struct.pxr_nc_1_0_XYZ = type { float, float, float }
%struct.pxr_nc_1_0_RGB = type { float, float, float }

@constinit = private constant [9 x float] [float 1.000000e+00, float 0.000000e+00, float 0.000000e+00, float 0.000000e+00, float 1.000000e+00, float 0.000000e+00, float 0.000000e+00, float 0.000000e+00, float 1.000000e+00], align 4

; Function Attrs: nounwind uwtable
define void @pxr_nc_1_0_GetRGBtoXYZMatrix(ptr dead_on_unwind noalias writable sret(%struct.pxr_nc_1_0_M33f) align 4 %0, ptr noundef %1) #0 {
  %3 = alloca ptr, align 8
  store ptr %1, ptr %3, align 8
  %4 = load ptr, ptr %3, align 8
  %5 = icmp ne ptr %4, null
  br i1 %5, label %8, label %6

6:                                                ; preds = %2
  %7 = getelementptr inbounds nuw %struct.pxr_nc_1_0_M33f, ptr %0, i32 0, i32 0
  call void @llvm.memcpy.p0.p0.i64(ptr align 4 %7, ptr align 4 @constinit, i64 36, i1 false)
  br label %11

8:                                                ; preds = %2
  %9 = load ptr, ptr %3, align 8
  %10 = getelementptr inbounds nuw %struct.pxr_nc_1_0_ColorSpace, ptr %9, i32 0, i32 3
  call void @llvm.memcpy.p0.p0.i64(ptr align 4 %0, ptr align 8 %10, i64 36, i1 false)
  br label %11

11:                                               ; preds = %8, %6
  ret void
}

; Function Attrs: nounwind uwtable
define internal float @nc_ToLinear(ptr noundef %0, float noundef %1) #0 {
  %3 = alloca float, align 4
  %4 = alloca ptr, align 8
  %5 = alloca float, align 4
  %6 = alloca float, align 4
  %7 = alloca float, align 4
  store ptr %0, ptr %4, align 8
  store float %1, ptr %5, align 4
  %8 = load ptr, ptr %4, align 8
  %9 = getelementptr inbounds nuw %struct.pxr_nc_1_0_ColorSpace, ptr %8, i32 0, i32 0
  %10 = getelementptr inbounds nuw %struct.pxr_nc_1_0_ColorSpaceDescriptor, ptr %9, i32 0, i32 5
  %11 = load float, ptr %10, align 8
  store float %11, ptr %6, align 4
  %12 = load float, ptr %5, align 4
  %13 = load ptr, ptr %4, align 8
  %14 = getelementptr inbounds nuw %struct.pxr_nc_1_0_ColorSpace, ptr %13, i32 0, i32 1
  %15 = load float, ptr %14, align 8
  %16 = fcmp olt float %12, %15
  br i1 %16, label %17, label %23

17:                                               ; preds = %2
  %18 = load float, ptr %5, align 4
  %19 = load ptr, ptr %4, align 8
  %20 = getelementptr inbounds nuw %struct.pxr_nc_1_0_ColorSpace, ptr %19, i32 0, i32 2
  %21 = load float, ptr %20, align 4
  %22 = fdiv float %18, %21
  store float %22, ptr %3, align 4
  br label %36

23:                                               ; preds = %2
  %24 = load ptr, ptr %4, align 8
  %25 = getelementptr inbounds nuw %struct.pxr_nc_1_0_ColorSpace, ptr %24, i32 0, i32 0
  %26 = getelementptr inbounds nuw %struct.pxr_nc_1_0_ColorSpaceDescriptor, ptr %25, i32 0, i32 6
  %27 = load float, ptr %26, align 4
  store float %27, ptr %7, align 4
  %28 = load float, ptr %5, align 4
  %29 = load float, ptr %7, align 4
  %30 = fadd float %28, %29
  %31 = load float, ptr %7, align 4
  %32 = fadd float 1.000000e+00, %31
  %33 = fdiv float %30, %32
  %34 = load float, ptr %6, align 4
  %35 = call float @powf(float noundef %33, float noundef %34) #8
  store float %35, ptr %3, align 4
  br label %36

36:                                               ; preds = %23, %17
  %37 = load float, ptr %3, align 4
  ret float %37
}

; Function Attrs: nounwind uwtable
define { <2 x float>, float } @pxr_nc_1_0_RGBToXYZ(ptr noundef %0, <2 x float> %1, float %2) #6 {
  %4 = alloca %struct.pxr_nc_1_0_XYZ, align 4
  %5 = alloca %struct.pxr_nc_1_0_RGB, align 4
  %6 = alloca { <2 x float>, float }, align 4
  %7 = alloca ptr, align 8
  %8 = alloca %struct.pxr_nc_1_0_M33f, align 4
  %9 = alloca { <2 x float>, float }, align 8
  %10 = getelementptr inbounds nuw { <2 x float>, float }, ptr %6, i32 0, i32 0
  store <2 x float> %1, ptr %10, align 4
  %11 = getelementptr inbounds nuw { <2 x float>, float }, ptr %6, i32 0, i32 1
  store float %2, ptr %11, align 4
  call void @llvm.memcpy.p0.p0.i64(ptr align 4 %5, ptr align 4 %6, i64 12, i1 false)
  store ptr %0, ptr %7, align 8
  %12 = load ptr, ptr %7, align 8
  %13 = icmp ne ptr %12, null
  br i1 %13, label %18, label %14

14:                                               ; preds = %3
  %15 = getelementptr inbounds nuw %struct.pxr_nc_1_0_XYZ, ptr %4, i32 0, i32 0
  store float 0.000000e+00, ptr %15, align 4
  %16 = getelementptr inbounds nuw %struct.pxr_nc_1_0_XYZ, ptr %4, i32 0, i32 1
  store float 0.000000e+00, ptr %16, align 4
  %17 = getelementptr inbounds nuw %struct.pxr_nc_1_0_XYZ, ptr %4, i32 0, i32 2
  store float 0.000000e+00, ptr %17, align 4
  br label %92

18:                                               ; preds = %3
  %19 = load ptr, ptr %7, align 8
  %20 = getelementptr inbounds nuw %struct.pxr_nc_1_0_RGB, ptr %5, i32 0, i32 0
  %21 = load float, ptr %20, align 4
  %22 = call float @nc_ToLinear(ptr noundef %19, float noundef %21)
  %23 = getelementptr inbounds nuw %struct.pxr_nc_1_0_RGB, ptr %5, i32 0, i32 0
  store float %22, ptr %23, align 4
  %24 = load ptr, ptr %7, align 8
  %25 = getelementptr inbounds nuw %struct.pxr_nc_1_0_RGB, ptr %5, i32 0, i32 1
  %26 = load float, ptr %25, align 4
  %27 = call float @nc_ToLinear(ptr noundef %24, float noundef %26)
  %28 = getelementptr inbounds nuw %struct.pxr_nc_1_0_RGB, ptr %5, i32 0, i32 1
  store float %27, ptr %28, align 4
  %29 = load ptr, ptr %7, align 8
  %30 = getelementptr inbounds nuw %struct.pxr_nc_1_0_RGB, ptr %5, i32 0, i32 2
  %31 = load float, ptr %30, align 4
  %32 = call float @nc_ToLinear(ptr noundef %29, float noundef %31)
  %33 = getelementptr inbounds nuw %struct.pxr_nc_1_0_RGB, ptr %5, i32 0, i32 2
  store float %32, ptr %33, align 4
  %34 = load ptr, ptr %7, align 8
  call void @pxr_nc_1_0_GetRGBtoXYZMatrix(ptr dead_on_unwind writable sret(%struct.pxr_nc_1_0_M33f) align 4 %8, ptr noundef %34)
  %35 = getelementptr inbounds nuw %struct.pxr_nc_1_0_XYZ, ptr %4, i32 0, i32 0
  %36 = getelementptr inbounds nuw %struct.pxr_nc_1_0_M33f, ptr %8, i32 0, i32 0
  %37 = getelementptr inbounds [9 x float], ptr %36, i64 0, i64 0
  %38 = load float, ptr %37, align 4
  %39 = getelementptr inbounds nuw %struct.pxr_nc_1_0_RGB, ptr %5, i32 0, i32 0
  %40 = load float, ptr %39, align 4
  %41 = getelementptr inbounds nuw %struct.pxr_nc_1_0_M33f, ptr %8, i32 0, i32 0
  %42 = getelementptr inbounds [9 x float], ptr %41, i64 0, i64 1
  %43 = load float, ptr %42, align 4
  %44 = getelementptr inbounds nuw %struct.pxr_nc_1_0_RGB, ptr %5, i32 0, i32 1
  %45 = load float, ptr %44, align 4
  %46 = fmul float %43, %45
  %47 = call float @llvm.fmuladd.f32(float %38, float %40, float %46)
  %48 = getelementptr inbounds nuw %struct.pxr_nc_1_0_M33f, ptr %8, i32 0, i32 0
  %49 = getelementptr inbounds [9 x float], ptr %48, i64 0, i64 2
  %50 = load float, ptr %49, align 4
  %51 = getelementptr inbounds nuw %struct.pxr_nc_1_0_RGB, ptr %5, i32 0, i32 2
  %52 = load float, ptr %51, align 4
  %53 = call float @llvm.fmuladd.f32(float %50, float %52, float %47)
  store float %53, ptr %35, align 4
  %54 = getelementptr inbounds nuw %struct.pxr_nc_1_0_XYZ, ptr %4, i32 0, i32 1
  %55 = getelementptr inbounds nuw %struct.pxr_nc_1_0_M33f, ptr %8, i32 0, i32 0
  %56 = getelementptr inbounds [9 x float], ptr %55, i64 0, i64 3
  %57 = load float, ptr %56, align 4
  %58 = getelementptr inbounds nuw %struct.pxr_nc_1_0_RGB, ptr %5, i32 0, i32 0
  %59 = load float, ptr %58, align 4
  %60 = getelementptr inbounds nuw %struct.pxr_nc_1_0_M33f, ptr %8, i32 0, i32 0
  %61 = getelementptr inbounds [9 x float], ptr %60, i64 0, i64 4
  %62 = load float, ptr %61, align 4
  %63 = getelementptr inbounds nuw %struct.pxr_nc_1_0_RGB, ptr %5, i32 0, i32 1
  %64 = load float, ptr %63, align 4
  %65 = fmul float %62, %64
  %66 = call float @llvm.fmuladd.f32(float %57, float %59, float %65)
  %67 = getelementptr inbounds nuw %struct.pxr_nc_1_0_M33f, ptr %8, i32 0, i32 0
  %68 = getelementptr inbounds [9 x float], ptr %67, i64 0, i64 5
  %69 = load float, ptr %68, align 4
  %70 = getelementptr inbounds nuw %struct.pxr_nc_1_0_RGB, ptr %5, i32 0, i32 2
  %71 = load float, ptr %70, align 4
  %72 = call float @llvm.fmuladd.f32(float %69, float %71, float %66)
  store float %72, ptr %54, align 4
  %73 = getelementptr inbounds nuw %struct.pxr_nc_1_0_XYZ, ptr %4, i32 0, i32 2
  %74 = getelementptr inbounds nuw %struct.pxr_nc_1_0_M33f, ptr %8, i32 0, i32 0
  %75 = getelementptr inbounds [9 x float], ptr %74, i64 0, i64 6
  %76 = load float, ptr %75, align 4
  %77 = getelementptr inbounds nuw %struct.pxr_nc_1_0_RGB, ptr %5, i32 0, i32 0
  %78 = load float, ptr %77, align 4
  %79 = getelementptr inbounds nuw %struct.pxr_nc_1_0_M33f, ptr %8, i32 0, i32 0
  %80 = getelementptr inbounds [9 x float], ptr %79, i64 0, i64 7
  %81 = load float, ptr %80, align 4
  %82 = getelementptr inbounds nuw %struct.pxr_nc_1_0_RGB, ptr %5, i32 0, i32 1
  %83 = load float, ptr %82, align 4
  %84 = fmul float %81, %83
  %85 = call float @llvm.fmuladd.f32(float %76, float %78, float %84)
  %86 = getelementptr inbounds nuw %struct.pxr_nc_1_0_M33f, ptr %8, i32 0, i32 0
  %87 = getelementptr inbounds [9 x float], ptr %86, i64 0, i64 8
  %88 = load float, ptr %87, align 4
  %89 = getelementptr inbounds nuw %struct.pxr_nc_1_0_RGB, ptr %5, i32 0, i32 2
  %90 = load float, ptr %89, align 4
  %91 = call float @llvm.fmuladd.f32(float %88, float %90, float %85)
  store float %91, ptr %73, align 4
  br label %92

92:                                               ; preds = %18, %14
  call void @llvm.memcpy.p0.p0.i64(ptr align 8 %9, ptr align 4 %4, i64 12, i1 false)
  %93 = load { <2 x float>, float }, ptr %9, align 8
  ret { <2 x float>, float } %93
}