; Function Attrs: mustprogress nofree nounwind willreturn memory(write, argmem: readwrite) uwtable
define { <2 x float>, float } @pxr_nc_1_0_RGBToXYZ(ptr noundef readonly %0, <2 x float> %1, float %2) local_unnamed_addr #12 {
  %.not = icmp eq ptr %0, null
  br i1 %.not, label %61, label %4

4:                                                ; preds = %3
  %.sroa.07.0.vec.extract = extractelement <2 x float> %1, i64 0
  %5 = getelementptr inbounds nuw i8, ptr %0, i64 48
  %6 = load float, ptr %5, align 8
  %7 = fcmp olt float %.sroa.07.0.vec.extract, %6
  br i1 %7, label %8, label %12

8:                                                ; preds = %4
  %9 = getelementptr inbounds nuw i8, ptr %0, i64 52
  %10 = load float, ptr %9, align 4
  %11 = fdiv float %.sroa.07.0.vec.extract, %10
  br label %nc_ToLinear.exit

12:                                               ; preds = %4
  %13 = getelementptr inbounds nuw i8, ptr %0, i64 40
  %14 = load float, ptr %13, align 8
  %15 = getelementptr inbounds nuw i8, ptr %0, i64 44
  %16 = load float, ptr %15, align 4
  %17 = fadd float %.sroa.07.0.vec.extract, %16
  %18 = fadd float %16, 1.000000e+00
  %19 = fdiv float %17, %18
  %20 = tail call float @powf(float noundef %19, float noundef %14) #22
  %.pre = load float, ptr %5, align 8
  br label %nc_ToLinear.exit

nc_ToLinear.exit:                                 ; preds = %8, %12
  %21 = phi float [ %6, %8 ], [ %.pre, %12 ]
  %.0.i = phi float [ %11, %8 ], [ %20, %12 ]
  %.sroa.07.4.vec.extract = extractelement <2 x float> %1, i64 1
  %22 = fcmp olt float %.sroa.07.4.vec.extract, %21
  br i1 %22, label %23, label %27

23:                                               ; preds = %nc_ToLinear.exit
  %24 = getelementptr inbounds nuw i8, ptr %0, i64 52
  %25 = load float, ptr %24, align 4
  %26 = fdiv float %.sroa.07.4.vec.extract, %25
  br label %nc_ToLinear.exit32

27:                                               ; preds = %nc_ToLinear.exit
  %28 = getelementptr inbounds nuw i8, ptr %0, i64 40
  %29 = load float, ptr %28, align 8
  %30 = getelementptr inbounds nuw i8, ptr %0, i64 44
  %31 = load float, ptr %30, align 4
  %32 = fadd float %.sroa.07.4.vec.extract, %31
  %33 = fadd float %31, 1.000000e+00
  %34 = fdiv float %32, %33
  %35 = tail call float @powf(float noundef %34, float noundef %29) #22
  %.pre45 = load float, ptr %5, align 8
  br label %nc_ToLinear.exit32

nc_ToLinear.exit32:                               ; preds = %23, %27
  %36 = phi float [ %21, %23 ], [ %.pre45, %27 ]
  %.0.i31 = phi float [ %26, %23 ], [ %35, %27 ]
  %37 = fcmp olt float %2, %36
  br i1 %37, label %38, label %42

38:                                               ; preds = %nc_ToLinear.exit32
  %39 = getelementptr inbounds nuw i8, ptr %0, i64 52
  %40 = load float, ptr %39, align 4
  %41 = fdiv float %2, %40
  br label %pxr_nc_1_0_GetRGBtoXYZMatrix.exit

42:                                               ; preds = %nc_ToLinear.exit32
  %43 = getelementptr inbounds nuw i8, ptr %0, i64 40
  %44 = load float, ptr %43, align 8
  %45 = getelementptr inbounds nuw i8, ptr %0, i64 44
  %46 = load float, ptr %45, align 4
  %47 = fadd float %2, %46
  %48 = fadd float %46, 1.000000e+00
  %49 = fdiv float %47, %48
  %50 = tail call float @powf(float noundef %49, float noundef %44) #22
  br label %pxr_nc_1_0_GetRGBtoXYZMatrix.exit

pxr_nc_1_0_GetRGBtoXYZMatrix.exit:                ; preds = %38, %42
  %.0.i33 = phi float [ %41, %38 ], [ %50, %42 ]
  %51 = getelementptr inbounds nuw i8, ptr %0, i64 56
  %.sroa.0.0.copyload = load float, ptr %51, align 8
  %.sroa.3.0..sroa_idx = getelementptr inbounds i8, ptr %0, i64 60
  %.sroa.3.0.copyload = load float, ptr %.sroa.3.0..sroa_idx, align 4
  %.sroa.4.0..sroa_idx = getelementptr inbounds i8, ptr %0, i64 64
  %.sroa.4.0.copyload = load float, ptr %.sroa.4.0..sroa_idx, align 8
  %.sroa.5.0..sroa_idx = getelementptr inbounds i8, ptr %0, i64 68
  %.sroa.5.0.copyload = load float, ptr %.sroa.5.0..sroa_idx, align 4
  %.sroa.6.0..sroa_idx = getelementptr inbounds i8, ptr %0, i64 72
  %.sroa.6.0.copyload = load float, ptr %.sroa.6.0..sroa_idx, align 8
  %.sroa.7.0..sroa_idx = getelementptr inbounds i8, ptr %0, i64 76
  %.sroa.7.0.copyload = load float, ptr %.sroa.7.0..sroa_idx, align 4
  %.sroa.8.0..sroa_idx = getelementptr inbounds i8, ptr %0, i64 80
  %.sroa.8.0.copyload = load float, ptr %.sroa.8.0..sroa_idx, align 8
  %.sroa.9.0..sroa_idx = getelementptr inbounds i8, ptr %0, i64 84
  %.sroa.9.0.copyload = load float, ptr %.sroa.9.0..sroa_idx, align 4
  %.sroa.10.0..sroa_idx = getelementptr inbounds i8, ptr %0, i64 88
  %.sroa.10.0.copyload = load float, ptr %.sroa.10.0..sroa_idx, align 8
  %52 = fmul float %.0.i31, %.sroa.3.0.copyload
  %53 = tail call float @llvm.fmuladd.f32(float %.sroa.0.0.copyload, float %.0.i, float %52)
  %54 = tail call float @llvm.fmuladd.f32(float %.sroa.4.0.copyload, float %.0.i33, float %53)
  %.sroa.025.0.vec.insert28 = insertelement <2 x float> poison, float %54, i64 0
  %55 = fmul float %.0.i31, %.sroa.6.0.copyload
  %56 = tail call float @llvm.fmuladd.f32(float %.sroa.5.0.copyload, float %.0.i, float %55)
  %57 = tail call float @llvm.fmuladd.f32(float %.sroa.7.0.copyload, float %.0.i33, float %56)
  %.sroa.025.4.vec.insert30 = insertelement <2 x float> %.sroa.025.0.vec.insert28, float %57, i64 1
  %58 = fmul float %.0.i31, %.sroa.9.0.copyload
  %59 = tail call float @llvm.fmuladd.f32(float %.sroa.8.0.copyload, float %.0.i, float %58)
  %60 = tail call float @llvm.fmuladd.f32(float %.sroa.10.0.copyload, float %.0.i33, float %59)
  br label %61

61:                                               ; preds = %3, %pxr_nc_1_0_GetRGBtoXYZMatrix.exit
  %.sroa.025.0 = phi <2 x float> [ %.sroa.025.4.vec.insert30, %pxr_nc_1_0_GetRGBtoXYZMatrix.exit ], [ zeroinitializer, %3 ]
  %.sroa.5.0 = phi float [ %60, %pxr_nc_1_0_GetRGBtoXYZMatrix.exit ], [ 0.000000e+00, %3 ]
  %.fca.0.insert = insertvalue { <2 x float>, float } poison, <2 x float> %.sroa.025.0, 0
  %.fca.1.insert = insertvalue { <2 x float>, float } %.fca.0.insert, float %.sroa.5.0, 1
  ret { <2 x float>, float } %.fca.1.insert
}